target datalayout = "e-m:e-p270:32:32-p271:32:32-p272:64:64-i64:64-i128:128-f80:128-n8:16:32:64-S128"
target triple = "x86_64-pc-linux-gnu"

%struct.strbuf = type { i64, i64, ptr }
%struct.helper_data = type { ptr, ptr, ptr, i16, ptr, ptr, %struct.refspec, %struct.git_transport_options }
%struct.refspec = type { ptr, i32, i32, i32 }
%struct.git_transport_options = type { i16, i32, ptr, ptr, ptr, ptr, ptr, %struct.list_objects_filter_options, ptr, ptr }
%struct.list_objects_filter_options = type { %struct.strbuf, i32, i8, ptr, i64, i64, i32, i64, i64, ptr }
%struct.transport = type { ptr, ptr, ptr, ptr, ptr, i8, ptr, i8, ptr, ptr, %struct.string_list, i8, ptr, i32, ptr }
%struct.string_list = type { ptr, i64, i64, i8, ptr }

@.str.37 = private unnamed_addr constant [1 x i8] zeroinitializer, align 1
@git_gettext_enabled = external global i32, align 4
@.str.62 = private unnamed_addr constant [16 x i8] c"git-upload-pack\00", align 1
@__const.process_connect_service.cmdbuf = private unnamed_addr constant %struct.strbuf { i64 0, i64 0, ptr @strbuf_slopbuf }, align 8
@.str.63 = private unnamed_addr constant [9 x i8] c"servpath\00", align 1
@.str.64 = private unnamed_addr constant [54 x i8] c"setting remote service path not supported by protocol\00", align 1
@.str.65 = private unnamed_addr constant [28 x i8] c"invalid remote service path\00", align 1
@.str.66 = private unnamed_addr constant [12 x i8] c"connect %s\0A\00", align 1
@.str.67 = private unnamed_addr constant [19 x i8] c"git-upload-archive\00", align 1
@.str.68 = private unnamed_addr constant [22 x i8] c"stateless-connect %s\0A\00", align 1

; Function Attrs: inlinehint nounwind uwtable
define internal ptr @_(ptr noundef %0) #6 {
  %2 = alloca ptr, align 8
  %3 = alloca ptr, align 8
  store ptr %0, ptr %3, align 8, !tbaa !9
  %4 = load ptr, ptr %3, align 8, !tbaa !9
  %5 = load i8, ptr %4, align 1, !tbaa !106
  %6 = icmp ne i8 %5, 0
  br i1 %6, label %8, label %7

7:                                                ; preds = %1
  store ptr @.str.37, ptr %2, align 8
  br label %16

8:                                                ; preds = %1
  %9 = load i32, ptr @git_gettext_enabled, align 4, !tbaa !29
  %10 = icmp ne i32 %9, 0
  br i1 %10, label %13, label %11

11:                                               ; preds = %8
  %12 = load ptr, ptr %3, align 8, !tbaa !9
  store ptr %12, ptr %2, align 8
  br label %16

13:                                               ; preds = %8
  %14 = load ptr, ptr %3, align 8, !tbaa !9
  %15 = call ptr @dcgettext(ptr noundef null, ptr noundef %14, i32 noundef 5) #12
  store ptr %15, ptr %2, align 8
  br label %16

16:                                               ; preds = %13, %11, %7
  %17 = load ptr, ptr %2, align 8
  ret ptr %17
}

; Function Attrs: nounwind uwtable
define internal i32 @process_connect_service(ptr noundef %0, ptr noundef %1, ptr noundef %2) #0 {
  %4 = alloca ptr, align 8
  %5 = alloca ptr, align 8
  %6 = alloca ptr, align 8
  %7 = alloca ptr, align 8
  %8 = alloca %struct.strbuf, align 8
  %9 = alloca i32, align 4
  %10 = alloca i32, align 4
  store ptr %0, ptr %4, align 8, !tbaa !4
  store ptr %1, ptr %5, align 8, !tbaa !9
  store ptr %2, ptr %6, align 8, !tbaa !9
  call void @llvm.lifetime.start.p0(i64 8, ptr %7) #12
  %11 = load ptr, ptr %4, align 8, !tbaa !4
  %12 = getelementptr inbounds nuw %struct.transport, ptr %11, i32 0, i32 3
  %13 = load ptr, ptr %12, align 8, !tbaa !30
  store ptr %13, ptr %7, align 8, !tbaa !11
  call void @llvm.lifetime.start.p0(i64 24, ptr %8) #12
  call void @llvm.memcpy.p0.p0.i64(ptr align 8 %8, ptr align 8 @__const.process_connect_service.cmdbuf, i64 24, i1 false)
  call void @llvm.lifetime.start.p0(i64 4, ptr %9) #12
  store i32 0, ptr %9, align 4, !tbaa !29
  %14 = load ptr, ptr %5, align 8, !tbaa !9
  %15 = load ptr, ptr %6, align 8, !tbaa !9
  %16 = call i32 @strcmp(ptr noundef %14, ptr noundef %15) #14
  %17 = icmp ne i32 %16, 0
  br i1 %17, label %18, label %33

18:                                               ; preds = %3
  call void @llvm.lifetime.start.p0(i64 4, ptr %10) #12
  %19 = load ptr, ptr %4, align 8, !tbaa !4
  %20 = load ptr, ptr %6, align 8, !tbaa !9
  %21 = call i32 @set_helper_option(ptr noundef %19, ptr noundef @.str.63, ptr noundef %20)
  store i32 %21, ptr %10, align 4, !tbaa !29
  %22 = load i32, ptr %10, align 4, !tbaa !29
  %23 = icmp sgt i32 %22, 0
  br i1 %23, label %24, label %26

24:                                               ; preds = %18
  %25 = call ptr @_(ptr noundef @.str.64)
  call void (ptr, ...) @warning(ptr noundef %25)
  br label %32

26:                                               ; preds = %18
  %27 = load i32, ptr %10, align 4, !tbaa !29
  %28 = icmp slt i32 %27, 0
  br i1 %28, label %29, label %31

29:                                               ; preds = %26
  %30 = call ptr @_(ptr noundef @.str.65)
  call void (ptr, ...) @warning(ptr noundef %30)
  br label %31

31:                                               ; preds = %29, %26
  br label %32

32:                                               ; preds = %31, %24
  call void @llvm.lifetime.end.p0(i64 4, ptr %10) #12
  br label %33

33:                                               ; preds = %32, %3
  %34 = load ptr, ptr %7, align 8, !tbaa !11
  %35 = getelementptr inbounds nuw %struct.helper_data, ptr %34, i32 0, i32 3
  %36 = load i16, ptr %35, align 8
  %37 = lshr i16 %36, 6
  %38 = and i16 %37, 1
  %39 = zext i16 %38 to i32
  %40 = icmp ne i32 %39, 0
  br i1 %40, label %41, label %45

41:                                               ; preds = %33
  %42 = load ptr, ptr %5, align 8, !tbaa !9
  call void (ptr, ptr, ...) @strbuf_addf(ptr noundef %8, ptr noundef @.str.66, ptr noundef %42)
  %43 = load ptr, ptr %4, align 8, !tbaa !4
  %44 = call i32 @run_connect(ptr noundef %43, ptr noundef %8)
  store i32 %44, ptr %9, align 4, !tbaa !29
  br label %78

45:                                               ; preds = %33
  %46 = load ptr, ptr %7, align 8, !tbaa !11
  %47 = getelementptr inbounds nuw %struct.helper_data, ptr %46, i32 0, i32 3
  %48 = load i16, ptr %47, align 8
  %49 = lshr i16 %48, 7
  %50 = and i16 %49, 1
  %51 = zext i16 %50 to i32
  %52 = icmp ne i32 %51, 0
  br i1 %52, label %53, label %77

53:                                               ; preds = %45
  %54 = call i32 @get_protocol_version_config()
  %55 = icmp eq i32 %54, 2
  br i1 %55, label %56, label %77

56:                                               ; preds = %53
  %57 = load ptr, ptr %5, align 8, !tbaa !9
  %58 = call i32 @strcmp(ptr noundef @.str.62, ptr noundef %57) #14
  %59 = icmp ne i32 %58, 0
  br i1 %59, label %60, label %64

60:                                               ; preds = %56
  %61 = load ptr, ptr %5, align 8, !tbaa !9
  %62 = call i32 @strcmp(ptr noundef @.str.67, ptr noundef %61) #14
  %63 = icmp ne i32 %62, 0
  br i1 %63, label %77, label %64

64:                                               ; preds = %60, %56
  %65 = load ptr, ptr %5, align 8, !tbaa !9
  call void (ptr, ptr, ...) @strbuf_addf(ptr noundef %8, ptr noundef @.str.68, ptr noundef %65)
  %66 = load ptr, ptr %4, align 8, !tbaa !4
  %67 = call i32 @run_connect(ptr noundef %66, ptr noundef %8)
  store i32 %67, ptr %9, align 4, !tbaa !29
  %68 = load i32, ptr %9, align 4, !tbaa !29
  %69 = icmp ne i32 %68, 0
  br i1 %69, label %70, label %76

70:                                               ; preds = %64
  %71 = load ptr, ptr %4, align 8, !tbaa !4
  %72 = getelementptr inbounds nuw %struct.transport, ptr %71, i32 0, i32 7
  %73 = load i8, ptr %72, align 8
  %74 = and i8 %73, -5
  %75 = or i8 %74, 4
  store i8 %75, ptr %72, align 8
  br label %76

76:                                               ; preds = %70, %64
  br label %77

77:                                               ; preds = %76, %60, %53, %45
  br label %78

78:                                               ; preds = %77, %41
  call void @strbuf_release(ptr noundef %8)
  %79 = load i32, ptr %9, align 4, !tbaa !29
  call void @llvm.lifetime.end.p0(i64 4, ptr %9) #12
  call void @llvm.lifetime.end.p0(i64 24, ptr %8) #12
  call void @llvm.lifetime.end.p0(i64 8, ptr %7) #12
  ret i32 %79
}