; Function Attrs: nounwind uwtable
define internal fastcc range(i32 0, 2) i32 @process_connect_service(ptr noundef captures(none) %0, ptr noundef %1, ptr noundef %2) unnamed_addr #0 {
  %4 = alloca %struct.strbuf, align 8
  %5 = getelementptr inbounds nuw i8, ptr %0, i64 24
  %6 = load ptr, ptr %5, align 8, !tbaa !24
  call void @llvm.lifetime.start.p0(i64 24, ptr nonnull %4) #19
  call void @llvm.memcpy.p0.p0.i64(ptr noundef nonnull align 8 dereferenceable(24) %4, ptr noundef nonnull align 8 dereferenceable(24) @__const.push_refs_with_export.buf, i64 24, i1 false)
  %7 = tail call i32 @strcmp(ptr noundef nonnull dereferenceable(1) %1, ptr noundef nonnull dereferenceable(1) %2) #21
  %.not = icmp eq i32 %7, 0
  br i1 %.not, label %18, label %8

8:                                                ; preds = %3
  %9 = tail call i32 @set_helper_option(ptr noundef nonnull %0, ptr noundef nonnull @.str.63, ptr noundef nonnull %2)
  %10 = icmp sgt i32 %9, 0
  br i1 %10, label %11, label %13

11:                                               ; preds = %8
  %12 = load i32, ptr @git_gettext_enabled, align 4, !tbaa !55
  %.not4.i = icmp eq i32 %12, 0
  br i1 %.not4.i, label %.sink.split, label %.sink.split.sink.split

13:                                               ; preds = %8
  %14 = icmp slt i32 %9, 0
  br i1 %14, label %15, label %18

15:                                               ; preds = %13
  %16 = load i32, ptr @git_gettext_enabled, align 4, !tbaa !55
  %.not4.i24 = icmp eq i32 %16, 0
  br i1 %.not4.i24, label %.sink.split, label %.sink.split.sink.split

.sink.split.sink.split:                           ; preds = %15, %11
  %.str.65.sink = phi ptr [ @.str.64, %11 ], [ @.str.65, %15 ]
  %17 = tail call ptr @dcgettext(ptr noundef null, ptr noundef nonnull %.str.65.sink, i32 noundef 5) #19
  br label %.sink.split

.sink.split:                                      ; preds = %.sink.split.sink.split, %15, %11
  %.0.i.sink = phi ptr [ @.str.64, %11 ], [ @.str.65, %15 ], [ %17, %.sink.split.sink.split ]
  tail call void (ptr, ...) @warning(ptr noundef %.0.i.sink) #19
  br label %18

18:                                               ; preds = %.sink.split, %13, %3
  %19 = getelementptr inbounds nuw i8, ptr %6, i64 24
  %20 = load i16, ptr %19, align 8
  %21 = and i16 %20, 64
  %.not19 = icmp eq i16 %21, 0
  br i1 %.not19, label %24, label %22

22:                                               ; preds = %18
  call void (ptr, ptr, ...) @strbuf_addf(ptr noundef nonnull %4, ptr noundef nonnull @.str.66, ptr noundef nonnull %1) #19
  %23 = call fastcc i32 @run_connect(ptr noundef nonnull %0, ptr noundef %4)
  br label %39

24:                                               ; preds = %18
  %25 = and i16 %20, 128
  %.not20 = icmp eq i16 %25, 0
  br i1 %.not20, label %39, label %26

26:                                               ; preds = %24
  %27 = tail call i32 @get_protocol_version_config() #19
  %28 = icmp eq i32 %27, 2
  br i1 %28, label %29, label %39

29:                                               ; preds = %26
  %30 = tail call i32 @strcmp(ptr noundef nonnull dereferenceable(16) @.str.62, ptr noundef nonnull dereferenceable(1) %1) #21
  %.not21 = icmp eq i32 %30, 0
  br i1 %.not21, label %33, label %31

31:                                               ; preds = %29
  %32 = tail call i32 @strcmp(ptr noundef nonnull dereferenceable(19) @.str.67, ptr noundef nonnull dereferenceable(1) %1) #21
  %.not22 = icmp eq i32 %32, 0
  br i1 %.not22, label %33, label %39

33:                                               ; preds = %31, %29
  call void (ptr, ptr, ...) @strbuf_addf(ptr noundef nonnull %4, ptr noundef nonnull @.str.68, ptr noundef nonnull %1) #19
  %34 = call fastcc i32 @run_connect(ptr noundef nonnull %0, ptr noundef %4)
  %.not23 = icmp eq i32 %34, 0
  br i1 %.not23, label %39, label %35

35:                                               ; preds = %33
  %36 = getelementptr inbounds nuw i8, ptr %0, i64 56
  %37 = load i8, ptr %36, align 8
  %38 = or i8 %37, 4
  store i8 %38, ptr %36, align 8
  br label %39

39:                                               ; preds = %24, %26, %31, %35, %33, %22
  %.0 = phi i32 [ %23, %22 ], [ 0, %31 ], [ 1, %35 ], [ 0, %33 ], [ 0, %26 ], [ 0, %24 ]
  call void @strbuf_release(ptr noundef nonnull %4) #19
  call void @llvm.lifetime.end.p0(i64 24, ptr nonnull %4) #19
  ret i32 %.0
}